ARM GAS  /var/folders/cw/yd42cdzd0yd5y__m68_66wjm0000gn/T//ccQ0UCMT.s 			page 1


   1              		.cpu cortex-m4
   2              		.arch armv7e-m
   3              		.fpu fpv4-sp-d16
   4              		.eabi_attribute 27, 1
   5              		.eabi_attribute 28, 1
   6              		.eabi_attribute 20, 1
   7              		.eabi_attribute 21, 1
   8              		.eabi_attribute 23, 3
   9              		.eabi_attribute 24, 1
  10              		.eabi_attribute 25, 1
  11              		.eabi_attribute 26, 1
  12              		.eabi_attribute 30, 1
  13              		.eabi_attribute 34, 1
  14              		.eabi_attribute 18, 4
  15              		.file	"it.c"
  16              		.text
  17              	.Ltext0:
  18              		.cfi_sections	.debug_frame
  19              		.file 1 "Core/Src/it.c"
  20              		.section	.text.SysTick_Handler,"ax",%progbits
  21              		.align	1
  22              		.global	SysTick_Handler
  23              		.syntax unified
  24              		.thumb
  25              		.thumb_func
  27              	SysTick_Handler:
  28              	.LFB134:
   1:Core/Src/it.c **** // it.c (interrupt)
   2:Core/Src/it.c **** 
   3:Core/Src/it.c **** #include "stm32f4xx_hal.h"
   4:Core/Src/it.c **** #include "it.h"
   5:Core/Src/it.c **** 
   6:Core/Src/it.c **** extern TIM_HandleTypeDef htimer6;
   7:Core/Src/it.c **** 
   8:Core/Src/it.c **** void SysTick_Handler(void)
   9:Core/Src/it.c **** {
  29              		.loc 1 9 1 view -0
  30              		.cfi_startproc
  31              		@ args = 0, pretend = 0, frame = 0
  32              		@ frame_needed = 0, uses_anonymous_args = 0
  33 0000 08B5     		push	{r3, lr}
  34              	.LCFI0:
  35              		.cfi_def_cfa_offset 8
  36              		.cfi_offset 3, -8
  37              		.cfi_offset 14, -4
  10:Core/Src/it.c ****     HAL_IncTick();
  38              		.loc 1 10 5 view .LVU1
  39 0002 FFF7FEFF 		bl	HAL_IncTick
  40              	.LVL0:
  11:Core/Src/it.c ****     HAL_SYSTICK_IRQHandler();
  41              		.loc 1 11 5 view .LVU2
  42 0006 FFF7FEFF 		bl	HAL_SYSTICK_IRQHandler
  43              	.LVL1:
  12:Core/Src/it.c **** }
  44              		.loc 1 12 1 is_stmt 0 view .LVU3
  45 000a 08BD     		pop	{r3, pc}
  46              		.cfi_endproc
ARM GAS  /var/folders/cw/yd42cdzd0yd5y__m68_66wjm0000gn/T//ccQ0UCMT.s 			page 2


  47              	.LFE134:
  49              		.section	.text.TIM6_DAC_IRQHandler,"ax",%progbits
  50              		.align	1
  51              		.global	TIM6_DAC_IRQHandler
  52              		.syntax unified
  53              		.thumb
  54              		.thumb_func
  56              	TIM6_DAC_IRQHandler:
  57              	.LFB135:
  13:Core/Src/it.c **** 
  14:Core/Src/it.c **** void TIM6_DAC_IRQHandler(void)
  15:Core/Src/it.c **** {
  58              		.loc 1 15 1 is_stmt 1 view -0
  59              		.cfi_startproc
  60              		@ args = 0, pretend = 0, frame = 0
  61              		@ frame_needed = 0, uses_anonymous_args = 0
  62 0000 08B5     		push	{r3, lr}
  63              	.LCFI1:
  64              		.cfi_def_cfa_offset 8
  65              		.cfi_offset 3, -8
  66              		.cfi_offset 14, -4
  16:Core/Src/it.c ****     HAL_TIM_IRQHandler(&htimer6);
  67              		.loc 1 16 5 view .LVU5
  68 0002 0248     		ldr	r0, .L5
  69 0004 FFF7FEFF 		bl	HAL_TIM_IRQHandler
  70              	.LVL2:
  17:Core/Src/it.c **** }
  71              		.loc 1 17 1 is_stmt 0 view .LVU6
  72 0008 08BD     		pop	{r3, pc}
  73              	.L6:
  74 000a 00BF     		.align	2
  75              	.L5:
  76 000c 00000000 		.word	htimer6
  77              		.cfi_endproc
  78              	.LFE135:
  80              		.text
  81              	.Letext0:
  82              		.file 2 "/Applications/ArmGNUToolchain/14.2.rel1/arm-none-eabi/arm-none-eabi/include/machine/_defa
  83              		.file 3 "/Applications/ArmGNUToolchain/14.2.rel1/arm-none-eabi/arm-none-eabi/include/sys/_stdint.h
  84              		.file 4 "Drivers/CMSIS/Device/ST/STM32F4xx/Include/stm32f407xx.h"
  85              		.file 5 "Drivers/STM32F4xx_HAL_Driver/Inc/stm32f4xx_hal_def.h"
  86              		.file 6 "Drivers/STM32F4xx_HAL_Driver/Inc/stm32f4xx_hal_dma.h"
  87              		.file 7 "Drivers/STM32F4xx_HAL_Driver/Inc/stm32f4xx_hal_tim.h"
  88              		.file 8 "Drivers/STM32F4xx_HAL_Driver/Inc/stm32f4xx_hal_cortex.h"
  89              		.file 9 "Drivers/STM32F4xx_HAL_Driver/Inc/stm32f4xx_hal.h"
ARM GAS  /var/folders/cw/yd42cdzd0yd5y__m68_66wjm0000gn/T//ccQ0UCMT.s 			page 3

